target datalayout = "e-m:e-p270:32:32-p271:32:32-p272:64:64-i64:64-i128:128-f80:128-n8:16:32:64-S128"
target triple = "x86_64-pc-linux-gnu"

; Function Attrs: nounwind uwtable
define dso_local ptr @rhash_init(i32 noundef %0) #0 {
  %2 = alloca ptr, align 8
  %3 = alloca i32, align 4
  %4 = alloca i64, align 8
  %5 = alloca [32 x i32], align 16
  %6 = alloca i32, align 4
  store i32 %0, ptr %3, align 4, !tbaa !4
  %7 = load i32, ptr %3, align 4, !tbaa !4
  %8 = icmp ne i32 %7, 0
  br i1 %8, label %9, label %13

9:                                                ; preds = %1
  %10 = load i32, ptr %3, align 4, !tbaa !4
  %11 = and i32 %10, -1024
  %12 = icmp eq i32 %11, 0
  br i1 %12, label %15, label %13

13:                                               ; preds = %9, %1
  %14 = call ptr @__errno_location() #9
  store i32 22, ptr %14, align 4, !tbaa !4
  store ptr null, ptr %2, align 8
  br label %50

15:                                               ; preds = %9
  %16 = load i32, ptr %3, align 4, !tbaa !4
  %17 = load i32, ptr %3, align 4, !tbaa !4
  %18 = sub i32 %17, 1
  %19 = and i32 %16, %18
  %20 = icmp eq i32 %19, 0
  br i1 %20, label %21, label %23

21:                                               ; preds = %15
  %22 = call ptr @rhash_init_multi(i64 noundef 1, ptr noundef %3)
  store ptr %22, ptr %2, align 8
  br label %50

23:                                               ; preds = %15
  call void @llvm.lifetime.start.p0(i64 8, ptr %4) #8
  call void @llvm.lifetime.start.p0(i64 128, ptr %5) #8
  call void @llvm.lifetime.start.p0(i64 4, ptr %6) #8
  %24 = load i32, ptr %3, align 4, !tbaa !4
  %25 = load i32, ptr %3, align 4, !tbaa !4
  %26 = sub i32 0, %25
  %27 = and i32 %24, %26
  store i32 %27, ptr %6, align 4, !tbaa !4
  store i64 0, ptr %4, align 8, !tbaa !8
  br label %28

28:                                               ; preds = %43, %23
  %29 = load i32, ptr %6, align 4, !tbaa !4
  %30 = load i32, ptr %3, align 4, !tbaa !4
  %31 = icmp ule i32 %29, %30
  br i1 %31, label %32, label %46

32:                                               ; preds = %28
  %33 = load i32, ptr %3, align 4, !tbaa !4
  %34 = load i32, ptr %6, align 4, !tbaa !4
  %35 = and i32 %33, %34
  %36 = icmp ne i32 %35, 0
  br i1 %36, label %37, label %42

37:                                               ; preds = %32
  %38 = load i32, ptr %6, align 4, !tbaa !4
  %39 = load i64, ptr %4, align 8, !tbaa !8
  %40 = add i64 %39, 1
  store i64 %40, ptr %4, align 8, !tbaa !8
  %41 = getelementptr inbounds nuw [32 x i32], ptr %5, i64 0, i64 %39
  store i32 %38, ptr %41, align 4, !tbaa !4
  br label %42

42:                                               ; preds = %37, %32
  br label %43

43:                                               ; preds = %42
  %44 = load i32, ptr %6, align 4, !tbaa !4
  %45 = shl i32 %44, 1
  store i32 %45, ptr %6, align 4, !tbaa !4
  br label %28, !llvm.loop !32

46:                                               ; preds = %28
  %47 = load i64, ptr %4, align 8, !tbaa !8
  %48 = getelementptr inbounds [32 x i32], ptr %5, i64 0, i64 0
  %49 = call ptr @rhash_init_multi(i64 noundef %47, ptr noundef %48)
  store ptr %49, ptr %2, align 8
  call void @llvm.lifetime.end.p0(i64 4, ptr %6) #8
  call void @llvm.lifetime.end.p0(i64 128, ptr %5) #8
  call void @llvm.lifetime.end.p0(i64 8, ptr %4) #8
  br label %50

50:                                               ; preds = %46, %21, %13
  %51 = load ptr, ptr %2, align 8
  ret ptr %51
}