; Function Attrs: nounwind uwtable
define dso_local noundef ptr @rhash_init(i32 noundef %0) local_unnamed_addr #0 {
  %2 = alloca i32, align 4
  %3 = alloca [32 x i32], align 16
  store i32 %0, ptr %2, align 4, !tbaa !4
  %4 = add i32 %0, -1
  %or.cond = icmp ult i32 %4, 1023
  br i1 %or.cond, label %7, label %5

5:                                                ; preds = %1
  %6 = tail call ptr @__errno_location() #17
  store i32 22, ptr %6, align 4, !tbaa !4
  br label %24

7:                                                ; preds = %1
  %8 = tail call range(i32 1, 11) i32 @llvm.ctpop.i32(i32 %0)
  %9 = icmp samesign ult i32 %8, 2
  br i1 %9, label %10, label %12

10:                                               ; preds = %7
  %11 = call ptr @rhash_init_multi(i64 noundef 1, ptr noundef nonnull %2)
  br label %24

12:                                               ; preds = %7
  call void @llvm.lifetime.start.p0(i64 128, ptr nonnull %3) #15
  %13 = sub nsw i32 0, %0
  %14 = and i32 %0, %13
  br label %15

15:                                               ; preds = %12, %20
  %.013 = phi i32 [ %14, %12 ], [ %21, %20 ]
  %.0612 = phi i64 [ 0, %12 ], [ %.1, %20 ]
  %16 = and i32 %.013, %0
  %.not11 = icmp eq i32 %16, 0
  br i1 %.not11, label %20, label %17

17:                                               ; preds = %15
  %18 = add i64 %.0612, 1
  %19 = getelementptr inbounds nuw [32 x i32], ptr %3, i64 0, i64 %.0612
  store i32 %.013, ptr %19, align 4, !tbaa !4
  br label %20

20:                                               ; preds = %15, %17
  %.1 = phi i64 [ %18, %17 ], [ %.0612, %15 ]
  %21 = shl i32 %.013, 1
  %.not10 = icmp ugt i32 %21, %0
  br i1 %.not10, label %22, label %15, !llvm.loop !25

22:                                               ; preds = %20
  %23 = call ptr @rhash_init_multi(i64 noundef %.1, ptr noundef nonnull %3)
  call void @llvm.lifetime.end.p0(i64 128, ptr nonnull %3) #15
  br label %24

24:                                               ; preds = %22, %10, %5
  %.07 = phi ptr [ %11, %10 ], [ %23, %22 ], [ null, %5 ]
  ret ptr %.07
}